
Intersection_Traffic_Light.elf:     file format elf32-avr

Sections:
Idx Name          Size      VMA       LMA       File off  Algn
  0 .data         00000000  00800100  00800100  000002ea  2**0
                  CONTENTS, ALLOC, LOAD, DATA
  1 .text         00000296  00000000  00000000  00000054  2**1
                  CONTENTS, ALLOC, LOAD, READONLY, CODE
  2 .comment      00000030  00000000  00000000  000002ea  2**0
                  CONTENTS, READONLY
  3 .note.gnu.avr.deviceinfo 00000040  00000000  00000000  0000031c  2**2
                  CONTENTS, READONLY
  4 .debug_aranges 00000020  00000000  00000000  0000035c  2**0
                  CONTENTS, READONLY, DEBUGGING
  5 .debug_info   0000085c  00000000  00000000  0000037c  2**0
                  CONTENTS, READONLY, DEBUGGING
  6 .debug_abbrev 000006ab  00000000  00000000  00000bd8  2**0
                  CONTENTS, READONLY, DEBUGGING
  7 .debug_line   00000313  00000000  00000000  00001283  2**0
                  CONTENTS, READONLY, DEBUGGING
  8 .debug_frame  00000034  00000000  00000000  00001598  2**2
                  CONTENTS, READONLY, DEBUGGING
  9 .debug_str    00000407  00000000  00000000  000015cc  2**0
                  CONTENTS, READONLY, DEBUGGING
 10 .debug_loc    000001ef  00000000  00000000  000019d3  2**0
                  CONTENTS, READONLY, DEBUGGING
 11 .debug_ranges 00000010  00000000  00000000  00001bc2  2**0
                  CONTENTS, READONLY, DEBUGGING

Disassembly of section .text:

00000000 <__vectors>:
   0:	0c 94 34 00 	jmp	0x68	; 0x68 <__ctors_end>
   4:	0c 94 3e 00 	jmp	0x7c	; 0x7c <__bad_interrupt>
   8:	0c 94 3e 00 	jmp	0x7c	; 0x7c <__bad_interrupt>
   c:	0c 94 3e 00 	jmp	0x7c	; 0x7c <__bad_interrupt>
  10:	0c 94 3e 00 	jmp	0x7c	; 0x7c <__bad_interrupt>
  14:	0c 94 3e 00 	jmp	0x7c	; 0x7c <__bad_interrupt>
  18:	0c 94 3e 00 	jmp	0x7c	; 0x7c <__bad_interrupt>
  1c:	0c 94 3e 00 	jmp	0x7c	; 0x7c <__bad_interrupt>
  20:	0c 94 3e 00 	jmp	0x7c	; 0x7c <__bad_interrupt>
  24:	0c 94 3e 00 	jmp	0x7c	; 0x7c <__bad_interrupt>
  28:	0c 94 3e 00 	jmp	0x7c	; 0x7c <__bad_interrupt>
  2c:	0c 94 3e 00 	jmp	0x7c	; 0x7c <__bad_interrupt>
  30:	0c 94 3e 00 	jmp	0x7c	; 0x7c <__bad_interrupt>
  34:	0c 94 3e 00 	jmp	0x7c	; 0x7c <__bad_interrupt>
  38:	0c 94 3e 00 	jmp	0x7c	; 0x7c <__bad_interrupt>
  3c:	0c 94 3e 00 	jmp	0x7c	; 0x7c <__bad_interrupt>
  40:	0c 94 3e 00 	jmp	0x7c	; 0x7c <__bad_interrupt>
  44:	0c 94 3e 00 	jmp	0x7c	; 0x7c <__bad_interrupt>
  48:	0c 94 3e 00 	jmp	0x7c	; 0x7c <__bad_interrupt>
  4c:	0c 94 3e 00 	jmp	0x7c	; 0x7c <__bad_interrupt>
  50:	0c 94 3e 00 	jmp	0x7c	; 0x7c <__bad_interrupt>
  54:	0c 94 3e 00 	jmp	0x7c	; 0x7c <__bad_interrupt>
  58:	0c 94 3e 00 	jmp	0x7c	; 0x7c <__bad_interrupt>
  5c:	0c 94 3e 00 	jmp	0x7c	; 0x7c <__bad_interrupt>
  60:	0c 94 3e 00 	jmp	0x7c	; 0x7c <__bad_interrupt>
  64:	0c 94 3e 00 	jmp	0x7c	; 0x7c <__bad_interrupt>

00000068 <__ctors_end>:
  68:	11 24       	eor	r1, r1
  6a:	1f be       	out	0x3f, r1	; 63
  6c:	cf ef       	ldi	r28, 0xFF	; 255
  6e:	d8 e0       	ldi	r29, 0x08	; 8
  70:	de bf       	out	0x3e, r29	; 62
  72:	cd bf       	out	0x3d, r28	; 61
  74:	0e 94 40 00 	call	0x80	; 0x80 <main>
  78:	0c 94 49 01 	jmp	0x292	; 0x292 <_exit>

0000007c <__bad_interrupt>:
  7c:	0c 94 00 00 	jmp	0	; 0x0 <__vectors>

00000080 <main>:
	unsigned LED_Yellow;				//LED_Yellow pin
	unsigned LED_Green;				//LED_Green pin
} Traffic_Light_st;

int main(void)
{
  80:	cf 93       	push	r28
  82:	df 93       	push	r29
  84:	cd b7       	in	r28, 0x3d	; 61
  86:	de b7       	in	r29, 0x3e	; 62
  88:	2c 97       	sbiw	r28, 0x0c	; 12
  8a:	0f b6       	in	r0, 0x3f	; 63
  8c:	f8 94       	cli
  8e:	de bf       	out	0x3e, r29	; 62
  90:	0f be       	out	0x3f, r0	; 63
  92:	cd bf       	out	0x3d, r28	; 61
    Traffic_Light_st Traffic_Light_1;
	Traffic_Light_st Traffic_Light_2;
	
	DDRD = 0B11111100;					//Sets pins 2 - 7 to output
  94:	8c ef       	ldi	r24, 0xFC	; 252
  96:	8a b9       	out	0x0a, r24	; 10
	
	Traffic_Light_1.LED_Red			=		PIND2;
  98:	82 e0       	ldi	r24, 0x02	; 2
  9a:	90 e0       	ldi	r25, 0x00	; 0
  9c:	9a 83       	std	Y+2, r25	; 0x02
  9e:	89 83       	std	Y+1, r24	; 0x01
	Traffic_Light_1.LED_Yellow		=		PIND3;
  a0:	83 e0       	ldi	r24, 0x03	; 3
  a2:	90 e0       	ldi	r25, 0x00	; 0
  a4:	9c 83       	std	Y+4, r25	; 0x04
  a6:	8b 83       	std	Y+3, r24	; 0x03
	Traffic_Light_1.LED_Green		=		PIND4;
  a8:	84 e0       	ldi	r24, 0x04	; 4
  aa:	90 e0       	ldi	r25, 0x00	; 0
  ac:	9e 83       	std	Y+6, r25	; 0x06
  ae:	8d 83       	std	Y+5, r24	; 0x05
	
	Traffic_Light_2.LED_Red			=		PIND5;
  b0:	85 e0       	ldi	r24, 0x05	; 5
  b2:	90 e0       	ldi	r25, 0x00	; 0
  b4:	98 87       	std	Y+8, r25	; 0x08
  b6:	8f 83       	std	Y+7, r24	; 0x07
	Traffic_Light_2.LED_Yellow		=		PIND6;
  b8:	86 e0       	ldi	r24, 0x06	; 6
  ba:	90 e0       	ldi	r25, 0x00	; 0
  bc:	9a 87       	std	Y+10, r25	; 0x0a
  be:	89 87       	std	Y+9, r24	; 0x09
	Traffic_Light_2.LED_Green		=		PIND7;
  c0:	87 e0       	ldi	r24, 0x07	; 7
  c2:	90 e0       	ldi	r25, 0x00	; 0
  c4:	9c 87       	std	Y+12, r25	; 0x0c
  c6:	8b 87       	std	Y+11, r24	; 0x0b
	
	unsigned short rebooted = 1;
  c8:	61 e0       	ldi	r22, 0x01	; 1
  ca:	70 e0       	ldi	r23, 0x00	; 0
	
    while (1) 
    {
		if (rebooted == 1) 
  cc:	61 30       	cpi	r22, 0x01	; 1
  ce:	71 05       	cpc	r23, r1
  d0:	59 f4       	brne	.+22     	; 0xe8 <main+0x68>
	#else
		//round up by default
		__ticks_dc = (uint32_t)(ceil(fabs(__tmp)));
	#endif

	__builtin_avr_delay_cycles(__ticks_dc);
  d2:	2f e3       	ldi	r18, 0x3F	; 63
  d4:	32 e4       	ldi	r19, 0x42	; 66
  d6:	4f e0       	ldi	r20, 0x0F	; 15
  d8:	21 50       	subi	r18, 0x01	; 1
  da:	30 40       	sbci	r19, 0x00	; 0
  dc:	40 40       	sbci	r20, 0x00	; 0
  de:	e1 f7       	brne	.-8      	; 0xd8 <main+0x58>
  e0:	00 c0       	rjmp	.+0      	; 0xe2 <main+0x62>
  e2:	00 00       	nop
		{
			_delay_ms(Reboot_delay);
			rebooted = 0;
  e4:	60 e0       	ldi	r22, 0x00	; 0
  e6:	70 e0       	ldi	r23, 0x00	; 0
		}
		
		PORTD |= 1 << Traffic_Light_1.LED_Green;
  e8:	4b b1       	in	r20, 0x0b	; 11
  ea:	81 e0       	ldi	r24, 0x01	; 1
  ec:	90 e0       	ldi	r25, 0x00	; 0
  ee:	9c 01       	movw	r18, r24
  f0:	0d 80       	ldd	r0, Y+5	; 0x05
  f2:	02 c0       	rjmp	.+4      	; 0xf8 <main+0x78>
  f4:	22 0f       	add	r18, r18
  f6:	33 1f       	adc	r19, r19
  f8:	0a 94       	dec	r0
  fa:	e2 f7       	brpl	.-8      	; 0xf4 <main+0x74>
  fc:	24 2b       	or	r18, r20
  fe:	2b b9       	out	0x0b, r18	; 11
		PORTD |= 1 << Traffic_Light_2.LED_Red;
 100:	4b b1       	in	r20, 0x0b	; 11
 102:	9c 01       	movw	r18, r24
 104:	0f 80       	ldd	r0, Y+7	; 0x07
 106:	02 c0       	rjmp	.+4      	; 0x10c <main+0x8c>
 108:	22 0f       	add	r18, r18
 10a:	33 1f       	adc	r19, r19
 10c:	0a 94       	dec	r0
 10e:	e2 f7       	brpl	.-8      	; 0x108 <main+0x88>
 110:	24 2b       	or	r18, r20
 112:	2b b9       	out	0x0b, r18	; 11
 114:	2f e7       	ldi	r18, 0x7F	; 127
 116:	34 e8       	ldi	r19, 0x84	; 132
 118:	4e e1       	ldi	r20, 0x1E	; 30
 11a:	21 50       	subi	r18, 0x01	; 1
 11c:	30 40       	sbci	r19, 0x00	; 0
 11e:	40 40       	sbci	r20, 0x00	; 0
 120:	e1 f7       	brne	.-8      	; 0x11a <main+0x9a>
 122:	00 c0       	rjmp	.+0      	; 0x124 <main+0xa4>
 124:	00 00       	nop
		_delay_ms(LED_RG_delay);
		PORTD &= ~(1 << Traffic_Light_1.LED_Green);
 126:	3b b1       	in	r19, 0x0b	; 11
 128:	ac 01       	movw	r20, r24
 12a:	0d 80       	ldd	r0, Y+5	; 0x05
 12c:	02 c0       	rjmp	.+4      	; 0x132 <main+0xb2>
 12e:	44 0f       	add	r20, r20
 130:	55 1f       	adc	r21, r21
 132:	0a 94       	dec	r0
 134:	e2 f7       	brpl	.-8      	; 0x12e <main+0xae>
 136:	24 2f       	mov	r18, r20
 138:	20 95       	com	r18
 13a:	23 23       	and	r18, r19
 13c:	2b b9       	out	0x0b, r18	; 11
		PORTD &= ~(1 << Traffic_Light_2.LED_Red);
 13e:	3b b1       	in	r19, 0x0b	; 11
 140:	ac 01       	movw	r20, r24
 142:	0f 80       	ldd	r0, Y+7	; 0x07
 144:	02 c0       	rjmp	.+4      	; 0x14a <main+0xca>
 146:	44 0f       	add	r20, r20
 148:	55 1f       	adc	r21, r21
 14a:	0a 94       	dec	r0
 14c:	e2 f7       	brpl	.-8      	; 0x146 <main+0xc6>
 14e:	24 2f       	mov	r18, r20
 150:	20 95       	com	r18
 152:	23 23       	and	r18, r19
 154:	2b b9       	out	0x0b, r18	; 11
		
		PORTD |= 1 << Traffic_Light_1.LED_Yellow;
 156:	4b b1       	in	r20, 0x0b	; 11
 158:	9c 01       	movw	r18, r24
 15a:	0b 80       	ldd	r0, Y+3	; 0x03
 15c:	02 c0       	rjmp	.+4      	; 0x162 <main+0xe2>
 15e:	22 0f       	add	r18, r18
 160:	33 1f       	adc	r19, r19
 162:	0a 94       	dec	r0
 164:	e2 f7       	brpl	.-8      	; 0x15e <main+0xde>
 166:	24 2b       	or	r18, r20
 168:	2b b9       	out	0x0b, r18	; 11
		PORTD |= 1 << Traffic_Light_2.LED_Yellow;
 16a:	4b b1       	in	r20, 0x0b	; 11
 16c:	9c 01       	movw	r18, r24
 16e:	09 84       	ldd	r0, Y+9	; 0x09
 170:	02 c0       	rjmp	.+4      	; 0x176 <main+0xf6>
 172:	22 0f       	add	r18, r18
 174:	33 1f       	adc	r19, r19
 176:	0a 94       	dec	r0
 178:	e2 f7       	brpl	.-8      	; 0x172 <main+0xf2>
 17a:	24 2b       	or	r18, r20
 17c:	2b b9       	out	0x0b, r18	; 11
 17e:	2f e7       	ldi	r18, 0x7F	; 127
 180:	3a e1       	ldi	r19, 0x1A	; 26
 182:	46 e0       	ldi	r20, 0x06	; 6
 184:	21 50       	subi	r18, 0x01	; 1
 186:	30 40       	sbci	r19, 0x00	; 0
 188:	40 40       	sbci	r20, 0x00	; 0
 18a:	e1 f7       	brne	.-8      	; 0x184 <main+0x104>
 18c:	00 c0       	rjmp	.+0      	; 0x18e <main+0x10e>
 18e:	00 00       	nop
		_delay_ms(LED_Yellow_delay);
		PORTD &= ~(1 << Traffic_Light_1.LED_Yellow);
 190:	3b b1       	in	r19, 0x0b	; 11
 192:	ac 01       	movw	r20, r24
 194:	0b 80       	ldd	r0, Y+3	; 0x03
 196:	02 c0       	rjmp	.+4      	; 0x19c <main+0x11c>
 198:	44 0f       	add	r20, r20
 19a:	55 1f       	adc	r21, r21
 19c:	0a 94       	dec	r0
 19e:	e2 f7       	brpl	.-8      	; 0x198 <main+0x118>
 1a0:	24 2f       	mov	r18, r20
 1a2:	20 95       	com	r18
 1a4:	23 23       	and	r18, r19
 1a6:	2b b9       	out	0x0b, r18	; 11
		PORTD &= ~(1 << Traffic_Light_2.LED_Yellow);
 1a8:	3b b1       	in	r19, 0x0b	; 11
 1aa:	ac 01       	movw	r20, r24
 1ac:	09 84       	ldd	r0, Y+9	; 0x09
 1ae:	02 c0       	rjmp	.+4      	; 0x1b4 <main+0x134>
 1b0:	44 0f       	add	r20, r20
 1b2:	55 1f       	adc	r21, r21
 1b4:	0a 94       	dec	r0
 1b6:	e2 f7       	brpl	.-8      	; 0x1b0 <main+0x130>
 1b8:	24 2f       	mov	r18, r20
 1ba:	20 95       	com	r18
 1bc:	23 23       	and	r18, r19
 1be:	2b b9       	out	0x0b, r18	; 11
		
		PORTD |= 1 << Traffic_Light_1.LED_Red;
 1c0:	4b b1       	in	r20, 0x0b	; 11
 1c2:	9c 01       	movw	r18, r24
 1c4:	09 80       	ldd	r0, Y+1	; 0x01
 1c6:	02 c0       	rjmp	.+4      	; 0x1cc <main+0x14c>
 1c8:	22 0f       	add	r18, r18
 1ca:	33 1f       	adc	r19, r19
 1cc:	0a 94       	dec	r0
 1ce:	e2 f7       	brpl	.-8      	; 0x1c8 <main+0x148>
 1d0:	24 2b       	or	r18, r20
 1d2:	2b b9       	out	0x0b, r18	; 11
		PORTD |= 1 << Traffic_Light_2.LED_Green;
 1d4:	4b b1       	in	r20, 0x0b	; 11
 1d6:	9c 01       	movw	r18, r24
 1d8:	0b 84       	ldd	r0, Y+11	; 0x0b
 1da:	02 c0       	rjmp	.+4      	; 0x1e0 <main+0x160>
 1dc:	22 0f       	add	r18, r18
 1de:	33 1f       	adc	r19, r19
 1e0:	0a 94       	dec	r0
 1e2:	e2 f7       	brpl	.-8      	; 0x1dc <main+0x15c>
 1e4:	24 2b       	or	r18, r20
 1e6:	2b b9       	out	0x0b, r18	; 11
 1e8:	2f e7       	ldi	r18, 0x7F	; 127
 1ea:	34 e8       	ldi	r19, 0x84	; 132
 1ec:	4e e1       	ldi	r20, 0x1E	; 30
 1ee:	21 50       	subi	r18, 0x01	; 1
 1f0:	30 40       	sbci	r19, 0x00	; 0
 1f2:	40 40       	sbci	r20, 0x00	; 0
 1f4:	e1 f7       	brne	.-8      	; 0x1ee <main+0x16e>
 1f6:	00 c0       	rjmp	.+0      	; 0x1f8 <main+0x178>
 1f8:	00 00       	nop
		_delay_ms(LED_RG_delay);
		PORTD &= ~(1 << Traffic_Light_1.LED_Red);
 1fa:	3b b1       	in	r19, 0x0b	; 11
 1fc:	ac 01       	movw	r20, r24
 1fe:	09 80       	ldd	r0, Y+1	; 0x01
 200:	02 c0       	rjmp	.+4      	; 0x206 <main+0x186>
 202:	44 0f       	add	r20, r20
 204:	55 1f       	adc	r21, r21
 206:	0a 94       	dec	r0
 208:	e2 f7       	brpl	.-8      	; 0x202 <main+0x182>
 20a:	24 2f       	mov	r18, r20
 20c:	20 95       	com	r18
 20e:	23 23       	and	r18, r19
 210:	2b b9       	out	0x0b, r18	; 11
		PORTD &= ~(1 << Traffic_Light_2.LED_Green);
 212:	3b b1       	in	r19, 0x0b	; 11
 214:	ac 01       	movw	r20, r24
 216:	0b 84       	ldd	r0, Y+11	; 0x0b
 218:	02 c0       	rjmp	.+4      	; 0x21e <main+0x19e>
 21a:	44 0f       	add	r20, r20
 21c:	55 1f       	adc	r21, r21
 21e:	0a 94       	dec	r0
 220:	e2 f7       	brpl	.-8      	; 0x21a <main+0x19a>
 222:	24 2f       	mov	r18, r20
 224:	20 95       	com	r18
 226:	23 23       	and	r18, r19
 228:	2b b9       	out	0x0b, r18	; 11
		
		PORTD |= 1 << Traffic_Light_1.LED_Yellow;
 22a:	4b b1       	in	r20, 0x0b	; 11
 22c:	9c 01       	movw	r18, r24
 22e:	0b 80       	ldd	r0, Y+3	; 0x03
 230:	02 c0       	rjmp	.+4      	; 0x236 <main+0x1b6>
 232:	22 0f       	add	r18, r18
 234:	33 1f       	adc	r19, r19
 236:	0a 94       	dec	r0
 238:	e2 f7       	brpl	.-8      	; 0x232 <main+0x1b2>
 23a:	24 2b       	or	r18, r20
 23c:	2b b9       	out	0x0b, r18	; 11
		PORTD |= 1 << Traffic_Light_2.LED_Yellow;
 23e:	4b b1       	in	r20, 0x0b	; 11
 240:	9c 01       	movw	r18, r24
 242:	09 84       	ldd	r0, Y+9	; 0x09
 244:	02 c0       	rjmp	.+4      	; 0x24a <main+0x1ca>
 246:	22 0f       	add	r18, r18
 248:	33 1f       	adc	r19, r19
 24a:	0a 94       	dec	r0
 24c:	e2 f7       	brpl	.-8      	; 0x246 <main+0x1c6>
 24e:	24 2b       	or	r18, r20
 250:	2b b9       	out	0x0b, r18	; 11
 252:	2f e7       	ldi	r18, 0x7F	; 127
 254:	3a e1       	ldi	r19, 0x1A	; 26
 256:	46 e0       	ldi	r20, 0x06	; 6
 258:	21 50       	subi	r18, 0x01	; 1
 25a:	30 40       	sbci	r19, 0x00	; 0
 25c:	40 40       	sbci	r20, 0x00	; 0
 25e:	e1 f7       	brne	.-8      	; 0x258 <main+0x1d8>
 260:	00 c0       	rjmp	.+0      	; 0x262 <main+0x1e2>
 262:	00 00       	nop
		_delay_ms(LED_Yellow_delay);
		PORTD &= ~(1 << Traffic_Light_1.LED_Yellow);
 264:	3b b1       	in	r19, 0x0b	; 11
 266:	ac 01       	movw	r20, r24
 268:	0b 80       	ldd	r0, Y+3	; 0x03
 26a:	02 c0       	rjmp	.+4      	; 0x270 <main+0x1f0>
 26c:	44 0f       	add	r20, r20
 26e:	55 1f       	adc	r21, r21
 270:	0a 94       	dec	r0
 272:	e2 f7       	brpl	.-8      	; 0x26c <main+0x1ec>
 274:	24 2f       	mov	r18, r20
 276:	20 95       	com	r18
 278:	23 23       	and	r18, r19
 27a:	2b b9       	out	0x0b, r18	; 11
		PORTD &= ~(1 << Traffic_Light_2.LED_Yellow);
 27c:	2b b1       	in	r18, 0x0b	; 11
 27e:	09 84       	ldd	r0, Y+9	; 0x09
 280:	02 c0       	rjmp	.+4      	; 0x286 <main+0x206>
 282:	88 0f       	add	r24, r24
 284:	99 1f       	adc	r25, r25
 286:	0a 94       	dec	r0
 288:	e2 f7       	brpl	.-8      	; 0x282 <main+0x202>
 28a:	80 95       	com	r24
 28c:	82 23       	and	r24, r18
 28e:	8b b9       	out	0x0b, r24	; 11
		
    }
 290:	1d cf       	rjmp	.-454    	; 0xcc <main+0x4c>

00000292 <_exit>:
 292:	f8 94       	cli

00000294 <__stop_program>:
 294:	ff cf       	rjmp	.-2      	; 0x294 <__stop_program>
